target datalayout = "e-m:e-p270:32:32-p271:32:32-p272:64:64-i64:64-i128:128-f80:128-n8:16:32:64-S128"
target triple = "x86_64-pc-linux-gnu"

%struct.archive_string = type { ptr, i64, i64 }
%struct.lha = type { i64, i64, i64, i16, i64, i8, [3 x i8], i64, i64, i32, i64, i64, i64, i64, i64, i64, i32, i64, i64, %struct.archive_string, %struct.archive_string, i16, i16, ptr, ptr, ptr, %struct.archive_string, %struct.archive_string, %struct.archive_wstring, i8, i8, i8, i8, i8, i8, i8, [64 x i8], %struct.lzh_stream }
%struct.archive_wstring = type { ptr, i64, i64 }
%struct.lzh_stream = type { ptr, i32, i64, ptr, i32, i64, ptr }

; Function Attrs: nounwind uwtable
define internal void @lha_replace_path_separator(ptr noundef %0, ptr noundef %1) #0 {
  %3 = alloca ptr, align 8
  %4 = alloca ptr, align 8
  %5 = alloca ptr, align 8
  %6 = alloca i64, align 8
  store ptr %0, ptr %3, align 8, !tbaa !13
  store ptr %1, ptr %4, align 8, !tbaa !51
  call void @llvm.lifetime.start.p0(i64 8, ptr %5) #11
  call void @llvm.lifetime.start.p0(i64 8, ptr %6) #11
  %7 = load ptr, ptr %4, align 8, !tbaa !51
  %8 = call ptr @archive_entry_pathname_w(ptr noundef %7)
  store ptr %8, ptr %5, align 8, !tbaa !117
  %9 = icmp ne ptr %8, null
  br i1 %9, label %10, label %59

10:                                               ; preds = %2
  %11 = load ptr, ptr %3, align 8, !tbaa !13
  %12 = getelementptr inbounds nuw %struct.lha, ptr %11, i32 0, i32 28
  %13 = getelementptr inbounds nuw %struct.archive_wstring, ptr %12, i32 0, i32 1
  store i64 0, ptr %13, align 8, !tbaa !26
  %14 = load ptr, ptr %3, align 8, !tbaa !13
  %15 = getelementptr inbounds nuw %struct.lha, ptr %14, i32 0, i32 28
  %16 = load ptr, ptr %5, align 8, !tbaa !117
  %17 = load ptr, ptr %5, align 8, !tbaa !117
  %18 = icmp eq ptr %17, null
  br i1 %18, label %19, label %20

19:                                               ; preds = %10
  br label %23

20:                                               ; preds = %10
  %21 = load ptr, ptr %5, align 8, !tbaa !117
  %22 = call i64 @wcslen(ptr noundef %21) #13
  br label %23

23:                                               ; preds = %20, %19
  %24 = phi i64 [ 0, %19 ], [ %22, %20 ]
  %25 = call ptr @archive_wstrncat(ptr noundef %15, ptr noundef %16, i64 noundef %24)
  store i64 0, ptr %6, align 8, !tbaa !30
  br label %26

26:                                               ; preds = %50, %23
  %27 = load i64, ptr %6, align 8, !tbaa !30
  %28 = load ptr, ptr %3, align 8, !tbaa !13
  %29 = getelementptr inbounds nuw %struct.lha, ptr %28, i32 0, i32 28
  %30 = getelementptr inbounds nuw %struct.archive_wstring, ptr %29, i32 0, i32 1
  %31 = load i64, ptr %30, align 8, !tbaa !26
  %32 = icmp ult i64 %27, %31
  br i1 %32, label %33, label %53

33:                                               ; preds = %26
  %34 = load ptr, ptr %3, align 8, !tbaa !13
  %35 = getelementptr inbounds nuw %struct.lha, ptr %34, i32 0, i32 28
  %36 = getelementptr inbounds nuw %struct.archive_wstring, ptr %35, i32 0, i32 0
  %37 = load ptr, ptr %36, align 8, !tbaa !15
  %38 = load i64, ptr %6, align 8, !tbaa !30
  %39 = getelementptr inbounds nuw i32, ptr %37, i64 %38
  %40 = load i32, ptr %39, align 4, !tbaa !11
  %41 = icmp eq i32 %40, 92
  br i1 %41, label %42, label %49

42:                                               ; preds = %33
  %43 = load ptr, ptr %3, align 8, !tbaa !13
  %44 = getelementptr inbounds nuw %struct.lha, ptr %43, i32 0, i32 28
  %45 = getelementptr inbounds nuw %struct.archive_wstring, ptr %44, i32 0, i32 0
  %46 = load ptr, ptr %45, align 8, !tbaa !15
  %47 = load i64, ptr %6, align 8, !tbaa !30
  %48 = getelementptr inbounds nuw i32, ptr %46, i64 %47
  store i32 47, ptr %48, align 4, !tbaa !11
  br label %49

49:                                               ; preds = %42, %33
  br label %50

50:                                               ; preds = %49
  %51 = load i64, ptr %6, align 8, !tbaa !30
  %52 = add i64 %51, 1
  store i64 %52, ptr %6, align 8, !tbaa !30
  br label %26, !llvm.loop !118

53:                                               ; preds = %26
  %54 = load ptr, ptr %4, align 8, !tbaa !51
  %55 = load ptr, ptr %3, align 8, !tbaa !13
  %56 = getelementptr inbounds nuw %struct.lha, ptr %55, i32 0, i32 28
  %57 = getelementptr inbounds nuw %struct.archive_wstring, ptr %56, i32 0, i32 0
  %58 = load ptr, ptr %57, align 8, !tbaa !15
  call void @archive_entry_copy_pathname_w(ptr noundef %54, ptr noundef %58)
  br label %59

59:                                               ; preds = %53, %2
  %60 = load ptr, ptr %4, align 8, !tbaa !51
  %61 = call ptr @archive_entry_symlink_w(ptr noundef %60)
  store ptr %61, ptr %5, align 8, !tbaa !117
  %62 = icmp ne ptr %61, null
  br i1 %62, label %63, label %112

63:                                               ; preds = %59
  %64 = load ptr, ptr %3, align 8, !tbaa !13
  %65 = getelementptr inbounds nuw %struct.lha, ptr %64, i32 0, i32 28
  %66 = getelementptr inbounds nuw %struct.archive_wstring, ptr %65, i32 0, i32 1
  store i64 0, ptr %66, align 8, !tbaa !26
  %67 = load ptr, ptr %3, align 8, !tbaa !13
  %68 = getelementptr inbounds nuw %struct.lha, ptr %67, i32 0, i32 28
  %69 = load ptr, ptr %5, align 8, !tbaa !117
  %70 = load ptr, ptr %5, align 8, !tbaa !117
  %71 = icmp eq ptr %70, null
  br i1 %71, label %72, label %73

72:                                               ; preds = %63
  br label %76

73:                                               ; preds = %63
  %74 = load ptr, ptr %5, align 8, !tbaa !117
  %75 = call i64 @wcslen(ptr noundef %74) #13
  br label %76

76:                                               ; preds = %73, %72
  %77 = phi i64 [ 0, %72 ], [ %75, %73 ]
  %78 = call ptr @archive_wstrncat(ptr noundef %68, ptr noundef %69, i64 noundef %77)
  store i64 0, ptr %6, align 8, !tbaa !30
  br label %79

79:                                               ; preds = %103, %76
  %80 = load i64, ptr %6, align 8, !tbaa !30
  %81 = load ptr, ptr %3, align 8, !tbaa !13
  %82 = getelementptr inbounds nuw %struct.lha, ptr %81, i32 0, i32 28
  %83 = getelementptr inbounds nuw %struct.archive_wstring, ptr %82, i32 0, i32 1
  %84 = load i64, ptr %83, align 8, !tbaa !26
  %85 = icmp ult i64 %80, %84
  br i1 %85, label %86, label %106

86:                                               ; preds = %79
  %87 = load ptr, ptr %3, align 8, !tbaa !13
  %88 = getelementptr inbounds nuw %struct.lha, ptr %87, i32 0, i32 28
  %89 = getelementptr inbounds nuw %struct.archive_wstring, ptr %88, i32 0, i32 0
  %90 = load ptr, ptr %89, align 8, !tbaa !15
  %91 = load i64, ptr %6, align 8, !tbaa !30
  %92 = getelementptr inbounds nuw i32, ptr %90, i64 %91
  %93 = load i32, ptr %92, align 4, !tbaa !11
  %94 = icmp eq i32 %93, 92
  br i1 %94, label %95, label %102

95:                                               ; preds = %86
  %96 = load ptr, ptr %3, align 8, !tbaa !13
  %97 = getelementptr inbounds nuw %struct.lha, ptr %96, i32 0, i32 28
  %98 = getelementptr inbounds nuw %struct.archive_wstring, ptr %97, i32 0, i32 0
  %99 = load ptr, ptr %98, align 8, !tbaa !15
  %100 = load i64, ptr %6, align 8, !tbaa !30
  %101 = getelementptr inbounds nuw i32, ptr %99, i64 %100
  store i32 47, ptr %101, align 4, !tbaa !11
  br label %102

102:                                              ; preds = %95, %86
  br label %103

103:                                              ; preds = %102
  %104 = load i64, ptr %6, align 8, !tbaa !30
  %105 = add i64 %104, 1
  store i64 %105, ptr %6, align 8, !tbaa !30
  br label %79, !llvm.loop !119

106:                                              ; preds = %79
  %107 = load ptr, ptr %4, align 8, !tbaa !51
  %108 = load ptr, ptr %3, align 8, !tbaa !13
  %109 = getelementptr inbounds nuw %struct.lha, ptr %108, i32 0, i32 28
  %110 = getelementptr inbounds nuw %struct.archive_wstring, ptr %109, i32 0, i32 0
  %111 = load ptr, ptr %110, align 8, !tbaa !15
  call void @archive_entry_copy_symlink_w(ptr noundef %107, ptr noundef %111)
  br label %112

112:                                              ; preds = %106, %59
  call void @llvm.lifetime.end.p0(i64 8, ptr %6) #11
  call void @llvm.lifetime.end.p0(i64 8, ptr %5) #11
  ret void
}