; Function Attrs: nounwind uwtable
define internal fastcc void @lha_replace_path_separator(ptr noundef %0, ptr noundef %1) unnamed_addr #0 {
  %3 = tail call ptr @archive_entry_pathname_w(ptr noundef %1) #18
  %.not = icmp eq ptr %3, null
  br i1 %.not, label %16, label %4

4:                                                ; preds = %2
  %5 = getelementptr inbounds nuw i8, ptr %0, i64 272
  %6 = getelementptr inbounds nuw i8, ptr %0, i64 280
  store i64 0, ptr %6, align 8, !tbaa !165
  %7 = tail call i64 @wcslen(ptr noundef nonnull %3) #20
  %8 = tail call ptr @archive_wstrncat(ptr noundef nonnull %5, ptr noundef nonnull %3, i64 noundef %7) #18
  %9 = load i64, ptr %6, align 8, !tbaa !165
  %.not37 = icmp eq i64 %9, 0
  %.pre = load ptr, ptr %5, align 8, !tbaa !166
  br i1 %.not37, label %._crit_edge, label %.lr.ph

.lr.ph:                                           ; preds = %4, %14
  %.032 = phi i64 [ %15, %14 ], [ 0, %4 ]
  %10 = getelementptr inbounds nuw i32, ptr %.pre, i64 %.032
  %11 = load i32, ptr %10, align 4, !tbaa !154
  %12 = icmp eq i32 %11, 92
  br i1 %12, label %13, label %14

13:                                               ; preds = %.lr.ph
  store i32 47, ptr %10, align 4, !tbaa !154
  br label %14

14:                                               ; preds = %.lr.ph, %13
  %15 = add nuw i64 %.032, 1
  %exitcond.not = icmp eq i64 %15, %9
  br i1 %exitcond.not, label %._crit_edge, label %.lr.ph, !llvm.loop !167

._crit_edge:                                      ; preds = %14, %4
  tail call void @archive_entry_copy_pathname_w(ptr noundef %1, ptr noundef %.pre) #18
  br label %16

16:                                               ; preds = %._crit_edge, %2
  %17 = tail call ptr @archive_entry_symlink_w(ptr noundef %1) #18
  %.not31 = icmp eq ptr %17, null
  br i1 %.not31, label %30, label %18

18:                                               ; preds = %16
  %19 = getelementptr inbounds nuw i8, ptr %0, i64 272
  %20 = getelementptr inbounds nuw i8, ptr %0, i64 280
  store i64 0, ptr %20, align 8, !tbaa !165
  %21 = tail call i64 @wcslen(ptr noundef nonnull %17) #20
  %22 = tail call ptr @archive_wstrncat(ptr noundef nonnull %19, ptr noundef nonnull %17, i64 noundef %21) #18
  %23 = load i64, ptr %20, align 8, !tbaa !165
  %.not38 = icmp eq i64 %23, 0
  %.pre40 = load ptr, ptr %19, align 8, !tbaa !166
  br i1 %.not38, label %._crit_edge36, label %.lr.ph35

.lr.ph35:                                         ; preds = %18, %28
  %.133 = phi i64 [ %29, %28 ], [ 0, %18 ]
  %24 = getelementptr inbounds nuw i32, ptr %.pre40, i64 %.133
  %25 = load i32, ptr %24, align 4, !tbaa !154
  %26 = icmp eq i32 %25, 92
  br i1 %26, label %27, label %28

27:                                               ; preds = %.lr.ph35
  store i32 47, ptr %24, align 4, !tbaa !154
  br label %28

28:                                               ; preds = %.lr.ph35, %27
  %29 = add nuw i64 %.133, 1
  %exitcond39.not = icmp eq i64 %29, %23
  br i1 %exitcond39.not, label %._crit_edge36, label %.lr.ph35, !llvm.loop !168

._crit_edge36:                                    ; preds = %28, %18
  tail call void @archive_entry_copy_symlink_w(ptr noundef %1, ptr noundef %.pre40) #18
  br label %30

30:                                               ; preds = %._crit_edge36, %16
  ret void
}